target datalayout = "e-m:e-p270:32:32-p271:32:32-p272:64:64-i64:64-i128:128-f80:128-n8:16:32:64-S128"
target triple = "x86_64-unknown-linux-gnu"

%"class.net::TcpCubicSenderPackets" = type { %"class.net::TcpCubicSenderBase.base", %"class.net::Cubic", i64, i64, i64, i64, i64, i64, i64, i64 }
%"class.net::TcpCubicSenderBase.base" = type <{ %"class.net::SendAlgorithmInterface", %"class.net::HybridSlowStart", %"class.net::PrrSender", ptr, ptr, i8, [3 x i8], i32, i64, i64, i64, i8, i8, i8, i8, i8 }>
%"class.net::SendAlgorithmInterface" = type { ptr }
%"class.net::HybridSlowStart" = type { i8, i32, i64, i64, i32, %"class.net::QuicTime::Delta" }
%"class.net::QuicTime::Delta" = type { %"class.base::TimeDelta", i64 }
%"class.base::TimeDelta" = type { i64 }
%"class.net::PrrSender" = type { i64, i64, i64, i64 }
%"class.net::Cubic" = type { ptr, i32, %"class.net::QuicTime", %"class.net::QuicTime", %"class.net::QuicTime", i64, i64, i64, i64, i64, i32, i64 }
%"class.net::QuicTime" = type { i64 }
%"class.net::TcpCubicSenderBase" = type <{ %"class.net::SendAlgorithmInterface", %"class.net::HybridSlowStart", %"class.net::PrrSender", ptr, ptr, i8, [3 x i8], i32, i64, i64, i64, i8, i8, i8, i8, i8, [3 x i8] }>

; Function Attrs: mustprogress uwtable
define dso_local void @_ZN3net21TcpCubicSenderPackets25SetNumEmulatedConnectionsEi(ptr noundef nonnull align 8 dereferenceable(304) %this, i32 noundef %num_connections) unnamed_addr #0 align 2 {
entry:
  %this.addr = alloca ptr, align 8
  %num_connections.addr = alloca i32, align 4
  store ptr %this, ptr %this.addr, align 8
  store i32 %num_connections, ptr %num_connections.addr, align 4
  %this1 = load ptr, ptr %this.addr, align 8
  %0 = load i32, ptr %num_connections.addr, align 4
  call void @_ZN3net18TcpCubicSenderBase25SetNumEmulatedConnectionsEi(ptr noundef nonnull align 8 dereferenceable(141) %this1, i32 noundef %0)
  %cubic_ = getelementptr inbounds %"class.net::TcpCubicSenderPackets", ptr %this1, i32 0, i32 1
  %num_connections_ = getelementptr inbounds %"class.net::TcpCubicSenderBase", ptr %this1, i32 0, i32 7
  %1 = load i32, ptr %num_connections_, align 4
  call void @_ZN3net5Cubic17SetNumConnectionsEi(ptr noundef nonnull align 8 dereferenceable(96) %cubic_, i32 noundef %1)
  ret void
}