; Function Attrs: mustprogress uwtable
define dso_local void @_ZN3net21TcpCubicSenderPackets25SetNumEmulatedConnectionsEi(ptr noundef nonnull align 8 dereferenceable(304) %this, i32 noundef %num_connections) unnamed_addr #0 align 2 {
entry:
  tail call void @_ZN3net18TcpCubicSenderBase25SetNumEmulatedConnectionsEi(ptr noundef nonnull align 8 dereferenceable(141) %this, i32 noundef %num_connections)
  %cubic_ = getelementptr inbounds i8, ptr %this, i64 144
  %num_connections_ = getelementptr inbounds i8, ptr %this, i64 108
  %0 = load i32, ptr %num_connections_, align 4
  tail call void @_ZN3net5Cubic17SetNumConnectionsEi(ptr noundef nonnull align 8 dereferenceable(96) %cubic_, i32 noundef %0)
  ret void
}